target datalayout = "e-m:e-p270:32:32-p271:32:32-p272:64:64-i64:64-i128:128-f80:128-n8:16:32:64-S128"
target triple = "x86_64-pc-linux-gnu"

%struct.decoration = type { ptr, i32, i32, ptr }
%struct.strbuf = type { i64, i64, ptr }
%struct.string_list = type { ptr, i64, i64, i8, ptr }
%struct.rev_info = type { ptr, %struct.object_array, ptr, %struct.object_array, %struct.rev_cmdline_info, %struct.list_objects_filter_options, %struct.ref_exclusions, ptr, ptr, ptr, %struct.pathspec, i32, i32, i32, i32, i64, i32, i32, %struct.date_mode, i32, i32, i32, i32, ptr, i32, i32, ptr, ptr, i32, ptr, ptr, %struct.ident_split, ptr, i32, ptr, ptr, ptr, i32, i32, i32, ptr, %struct.grep_opt, ptr, i32, i32, i64, i64, i64, i32, i32, ptr, ptr, ptr, %struct.diff_options, %struct.diff_options, ptr, %struct.decoration, %struct.decoration, %struct.decoration, %struct.display_notes_opt, ptr, ptr, ptr, ptr, ptr, i32, ptr, i32, i32, i32, %struct.decoration, ptr, ptr, ptr, ptr, ptr, ptr, ptr, i32, ptr, i32, ptr, %struct.oidset }
%struct.object_array = type { i32, i32, ptr }
%struct.rev_cmdline_info = type { i32, i32, ptr }
%struct.list_objects_filter_options = type { %struct.strbuf, i32, i8, ptr, i64, i64, i32, i64, i64, ptr }
%struct.ref_exclusions = type { %struct.string_list, %struct.strvec, i8 }
%struct.strvec = type { ptr, i64, i64 }
%struct.pathspec = type { i32, i8, i32, i32, ptr }
%struct.date_mode = type { i32, i32, ptr }
%struct.ident_split = type { ptr, ptr, ptr, ptr, ptr, ptr, ptr, ptr }
%struct.grep_opt = type { ptr, ptr, ptr, ptr, ptr, ptr, i32, i32, i32, i32, i32, i32, i32, i32, i32, i32, i32, i32, i32, i32, i32, i32, i32, i32, i32, i32, i32, i32, i32, i32, i32, i32, [9 x [75 x i8]], i32, i32, i32, i32, i32, i32, i32, ptr, ptr, ptr }
%struct.diff_options = type { ptr, ptr, i32, i32, ptr, i32, ptr, i64, i64, ptr, ptr, ptr, ptr, %struct.diff_flags, i32, i32, i32, i32, i32, i32, i32, i32, i32, i32, i32, i32, i32, i32, i32, i32, i32, i32, i32, i32, i32, i32, ptr, i32, ptr, i32, i32, ptr, i64, i64, i32, i32, i32, i32, ptr, i32, i32, ptr, i32, i32, ptr, ptr, i32, [3 x i8], %struct.pathspec, ptr, ptr, ptr, ptr, ptr, ptr, ptr, ptr, i32, ptr, i32, i32, ptr, ptr, i32 }
%struct.diff_flags = type { i32, i32, i32, i32, i32, i32, i32, i32, i32, i32, i32, i32, i32, i32, i32, i32, i32, i32, i32, i32, i32, i32, i32, i32, i32, i32, i32, i32, i32, i32, i32, i32, i32, i32, i32 }
%struct.display_notes_opt = type { i32, %struct.string_list }
%struct.oidset = type { %struct.kh_oid_set }
%struct.kh_oid_set = type { i32, i32, i32, i32, ptr, ptr, ptr }

@strbuf_slopbuf = external global [0 x i8], align 1
@__const.fmt_output_subject.temp = private unnamed_addr constant %struct.strbuf { i64 0, i64 0, ptr @strbuf_slopbuf }, align 8
@.str.7 = private unnamed_addr constant [4 x i8] c"v%s\00", align 1
@.str.8 = private unnamed_addr constant [2 x i8] c"-\00", align 1
@.str.9 = private unnamed_addr constant [8 x i8] c"%04d-%s\00", align 1
@.str.45 = private unnamed_addr constant [11 x i8] c"./strbuf.h\00", align 1
@.str.46 = private unnamed_addr constant [30 x i8] c"strbuf_setlen() beyond buffer\00", align 1

; Function Attrs: inlinehint nounwind uwtable
define internal void @strbuf_setlen(ptr noundef %0, i64 noundef %1) #2 {
  %3 = alloca ptr, align 8
  %4 = alloca i64, align 8
  store ptr %0, ptr %3, align 8, !tbaa !57
  store i64 %1, ptr %4, align 8, !tbaa !11
  %5 = load i64, ptr %4, align 8, !tbaa !11
  %6 = load ptr, ptr %3, align 8, !tbaa !57
  %7 = getelementptr inbounds nuw %struct.strbuf, ptr %6, i32 0, i32 0
  %8 = load i64, ptr %7, align 8, !tbaa !125
  %9 = icmp ne i64 %8, 0
  br i1 %9, label %10, label %15

10:                                               ; preds = %2
  %11 = load ptr, ptr %3, align 8, !tbaa !57
  %12 = getelementptr inbounds nuw %struct.strbuf, ptr %11, i32 0, i32 0
  %13 = load i64, ptr %12, align 8, !tbaa !125
  %14 = sub i64 %13, 1
  br label %16

15:                                               ; preds = %2
  br label %16

16:                                               ; preds = %15, %10
  %17 = phi i64 [ %14, %10 ], [ 0, %15 ]
  %18 = icmp ugt i64 %5, %17
  br i1 %18, label %19, label %20

19:                                               ; preds = %16
  call void (ptr, i32, ptr, ...) @BUG_fl(ptr noundef @.str.45, i32 noundef 167, ptr noundef @.str.46) #12
  unreachable

20:                                               ; preds = %16
  %21 = load i64, ptr %4, align 8, !tbaa !11
  %22 = load ptr, ptr %3, align 8, !tbaa !57
  %23 = getelementptr inbounds nuw %struct.strbuf, ptr %22, i32 0, i32 1
  store i64 %21, ptr %23, align 8, !tbaa !122
  %24 = load ptr, ptr %3, align 8, !tbaa !57
  %25 = getelementptr inbounds nuw %struct.strbuf, ptr %24, i32 0, i32 2
  %26 = load ptr, ptr %25, align 8, !tbaa !119
  %27 = icmp ne ptr %26, @strbuf_slopbuf
  br i1 %27, label %28, label %34

28:                                               ; preds = %20
  %29 = load ptr, ptr %3, align 8, !tbaa !57
  %30 = getelementptr inbounds nuw %struct.strbuf, ptr %29, i32 0, i32 2
  %31 = load ptr, ptr %30, align 8, !tbaa !119
  %32 = load i64, ptr %4, align 8, !tbaa !11
  %33 = getelementptr inbounds nuw i8, ptr %31, i64 %32
  store i8 0, ptr %33, align 1, !tbaa !67
  br label %35

34:                                               ; preds = %20
  br label %35

35:                                               ; preds = %34, %28
  ret void
}

; Function Attrs: inlinehint nounwind uwtable
define internal void @strbuf_addstr(ptr noundef %0, ptr noundef %1) #2 {
  %3 = alloca ptr, align 8
  %4 = alloca ptr, align 8
  store ptr %0, ptr %3, align 8, !tbaa !57
  store ptr %1, ptr %4, align 8, !tbaa !9
  %5 = load ptr, ptr %3, align 8, !tbaa !57
  %6 = load ptr, ptr %4, align 8, !tbaa !9
  %7 = load ptr, ptr %4, align 8, !tbaa !9
  %8 = call i64 @strlen(ptr noundef %7) #11
  call void @strbuf_add(ptr noundef %5, ptr noundef %6, i64 noundef %8)
  ret void
}

; Function Attrs: nounwind uwtable
define dso_local void @fmt_output_subject(ptr noundef %0, ptr noundef %1, ptr noundef %2) #0 {
  %4 = alloca ptr, align 8
  %5 = alloca ptr, align 8
  %6 = alloca ptr, align 8
  %7 = alloca ptr, align 8
  %8 = alloca i32, align 4
  %9 = alloca i32, align 4
  %10 = alloca i32, align 4
  %11 = alloca %struct.strbuf, align 8
  store ptr %0, ptr %4, align 8, !tbaa !57
  store ptr %1, ptr %5, align 8, !tbaa !9
  store ptr %2, ptr %6, align 8, !tbaa !71
  call void @llvm.lifetime.start.p0(i64 8, ptr %7) #10
  %12 = load ptr, ptr %6, align 8, !tbaa !71
  %13 = getelementptr inbounds nuw %struct.rev_info, ptr %12, i32 0, i32 27
  %14 = load ptr, ptr %13, align 8, !tbaa !120
  store ptr %14, ptr %7, align 8, !tbaa !9
  call void @llvm.lifetime.start.p0(i64 4, ptr %8) #10
  %15 = load ptr, ptr %6, align 8, !tbaa !71
  %16 = getelementptr inbounds nuw %struct.rev_info, ptr %15, i32 0, i32 24
  %17 = load i32, ptr %16, align 8, !tbaa !121
  store i32 %17, ptr %8, align 4, !tbaa !15
  call void @llvm.lifetime.start.p0(i64 4, ptr %9) #10
  %18 = load ptr, ptr %4, align 8, !tbaa !57
  %19 = getelementptr inbounds nuw %struct.strbuf, ptr %18, i32 0, i32 1
  %20 = load i64, ptr %19, align 8, !tbaa !122
  %21 = trunc i64 %20 to i32
  store i32 %21, ptr %9, align 4, !tbaa !15
  call void @llvm.lifetime.start.p0(i64 4, ptr %10) #10
  %22 = load i32, ptr %9, align 4, !tbaa !15
  %23 = load ptr, ptr %6, align 8, !tbaa !71
  %24 = getelementptr inbounds nuw %struct.rev_info, ptr %23, i32 0, i32 37
  %25 = load i32, ptr %24, align 8, !tbaa !123
  %26 = add nsw i32 %22, %25
  %27 = sext i32 %26 to i64
  %28 = load ptr, ptr %7, align 8, !tbaa !9
  %29 = call i64 @strlen(ptr noundef %28) #11
  %30 = add i64 %29, 1
  %31 = sub i64 %27, %30
  %32 = trunc i64 %31 to i32
  store i32 %32, ptr %10, align 4, !tbaa !15
  %33 = load ptr, ptr %6, align 8, !tbaa !71
  %34 = getelementptr inbounds nuw %struct.rev_info, ptr %33, i32 0, i32 29
  %35 = load ptr, ptr %34, align 8, !tbaa !124
  %36 = icmp ne ptr %35, null
  br i1 %36, label %37, label %47

37:                                               ; preds = %3
  call void @llvm.lifetime.start.p0(i64 24, ptr %11) #10
  call void @llvm.memcpy.p0.p0.i64(ptr align 8 %11, ptr align 8 @__const.fmt_output_subject.temp, i64 24, i1 false)
  %38 = load ptr, ptr %6, align 8, !tbaa !71
  %39 = getelementptr inbounds nuw %struct.rev_info, ptr %38, i32 0, i32 29
  %40 = load ptr, ptr %39, align 8, !tbaa !124
  call void (ptr, ptr, ...) @strbuf_addf(ptr noundef %11, ptr noundef @.str.7, ptr noundef %40)
  %41 = load ptr, ptr %4, align 8, !tbaa !57
  %42 = getelementptr inbounds nuw %struct.strbuf, ptr %11, i32 0, i32 2
  %43 = load ptr, ptr %42, align 8, !tbaa !119
  %44 = getelementptr inbounds nuw %struct.strbuf, ptr %11, i32 0, i32 1
  %45 = load i64, ptr %44, align 8, !tbaa !122
  call void @format_sanitized_subject(ptr noundef %41, ptr noundef %43, i64 noundef %45)
  %46 = load ptr, ptr %4, align 8, !tbaa !57
  call void @strbuf_addstr(ptr noundef %46, ptr noundef @.str.8)
  call void @strbuf_release(ptr noundef %11)
  call void @llvm.lifetime.end.p0(i64 24, ptr %11) #10
  br label %47

47:                                               ; preds = %37, %3
  %48 = load ptr, ptr %4, align 8, !tbaa !57
  %49 = load i32, ptr %8, align 4, !tbaa !15
  %50 = load ptr, ptr %5, align 8, !tbaa !9
  call void (ptr, ptr, ...) @strbuf_addf(ptr noundef %48, ptr noundef @.str.9, i32 noundef %49, ptr noundef %50)
  %51 = load i32, ptr %10, align 4, !tbaa !15
  %52 = sext i32 %51 to i64
  %53 = load ptr, ptr %4, align 8, !tbaa !57
  %54 = getelementptr inbounds nuw %struct.strbuf, ptr %53, i32 0, i32 1
  %55 = load i64, ptr %54, align 8, !tbaa !122
  %56 = icmp ult i64 %52, %55
  br i1 %56, label %57, label %61

57:                                               ; preds = %47
  %58 = load ptr, ptr %4, align 8, !tbaa !57
  %59 = load i32, ptr %10, align 4, !tbaa !15
  %60 = sext i32 %59 to i64
  call void @strbuf_setlen(ptr noundef %58, i64 noundef %60)
  br label %61

61:                                               ; preds = %57, %47
  %62 = load ptr, ptr %4, align 8, !tbaa !57
  %63 = load ptr, ptr %7, align 8, !tbaa !9
  call void @strbuf_addstr(ptr noundef %62, ptr noundef %63)
  call void @llvm.lifetime.end.p0(i64 4, ptr %10) #10
  call void @llvm.lifetime.end.p0(i64 4, ptr %9) #10
  call void @llvm.lifetime.end.p0(i64 4, ptr %8) #10
  call void @llvm.lifetime.end.p0(i64 8, ptr %7) #10
  ret void
}