; Function Attrs: nounwind uwtable
define dso_local void @fmt_output_subject(ptr noundef %0, ptr noundef %1, ptr noundef readonly captures(none) %2) local_unnamed_addr #0 {
  %4 = alloca %struct.strbuf, align 8
  %5 = getelementptr inbounds nuw i8, ptr %2, i64 360
  %6 = load ptr, ptr %5, align 8, !tbaa !98
  %7 = getelementptr inbounds nuw i8, ptr %2, i64 344
  %8 = load i32, ptr %7, align 8, !tbaa !99
  %9 = getelementptr inbounds nuw i8, ptr %0, i64 8
  %10 = load i64, ptr %9, align 8, !tbaa !100
  %11 = trunc i64 %10 to i32
  %12 = getelementptr inbounds nuw i8, ptr %2, i64 496
  %13 = load i32, ptr %12, align 8, !tbaa !101
  %14 = add nsw i32 %13, %11
  %15 = tail call i64 @strlen(ptr noundef nonnull dereferenceable(1) %6) #16
  %16 = trunc i64 %15 to i32
  %17 = xor i32 %16, -1
  %18 = add i32 %14, %17
  %19 = getelementptr inbounds nuw i8, ptr %2, i64 376
  %20 = load ptr, ptr %19, align 8, !tbaa !102
  %.not = icmp eq ptr %20, null
  br i1 %.not, label %26, label %21

21:                                               ; preds = %3
  call void @llvm.lifetime.start.p0(i64 24, ptr nonnull %4) #15
  call void @llvm.memcpy.p0.p0.i64(ptr noundef nonnull align 8 dereferenceable(24) %4, ptr noundef nonnull align 8 dereferenceable(24) @__const.do_remerge_diff.parent2_desc, i64 24, i1 false)
  call void (ptr, ptr, ...) @strbuf_addf(ptr noundef nonnull %4, ptr noundef nonnull @.str.7, ptr noundef nonnull %20) #15
  %22 = getelementptr inbounds nuw i8, ptr %4, i64 16
  %23 = load ptr, ptr %22, align 8, !tbaa !97
  %24 = getelementptr inbounds nuw i8, ptr %4, i64 8
  %25 = load i64, ptr %24, align 8, !tbaa !100
  call void @format_sanitized_subject(ptr noundef nonnull %0, ptr noundef %23, i64 noundef %25) #15
  call void @strbuf_add(ptr noundef nonnull %0, ptr noundef nonnull @.str.8, i64 noundef 1) #15
  call void @strbuf_release(ptr noundef nonnull %4) #15
  call void @llvm.lifetime.end.p0(i64 24, ptr nonnull %4) #15
  br label %26

26:                                               ; preds = %21, %3
  call void (ptr, ptr, ...) @strbuf_addf(ptr noundef nonnull %0, ptr noundef nonnull @.str.9, i32 noundef %8, ptr noundef %1) #15
  %27 = sext i32 %18 to i64
  %28 = load i64, ptr %9, align 8, !tbaa !100
  %29 = icmp ugt i64 %28, %27
  br i1 %29, label %30, label %strbuf_setlen.exit

30:                                               ; preds = %26
  %31 = load i64, ptr %0, align 8, !tbaa !103
  %spec.select.i = call i64 @llvm.usub.sat.i64(i64 %31, i64 1)
  %32 = icmp ult i64 %spec.select.i, %27
  br i1 %32, label %33, label %34

33:                                               ; preds = %30
  call void (ptr, i32, ptr, ...) @BUG_fl(ptr noundef nonnull @.str.45, i32 noundef 167, ptr noundef nonnull @.str.46) #17
  unreachable

34:                                               ; preds = %30
  store i64 %27, ptr %9, align 8, !tbaa !100
  %35 = getelementptr inbounds nuw i8, ptr %0, i64 16
  %36 = load ptr, ptr %35, align 8, !tbaa !97
  %.not9.i = icmp eq ptr %36, @strbuf_slopbuf
  br i1 %.not9.i, label %strbuf_setlen.exit, label %37

37:                                               ; preds = %34
  %38 = getelementptr inbounds nuw i8, ptr %36, i64 %27
  store i8 0, ptr %38, align 1, !tbaa !32
  br label %strbuf_setlen.exit

strbuf_setlen.exit:                               ; preds = %37, %34, %26
  %39 = call i64 @strlen(ptr noundef nonnull dereferenceable(1) %6) #16
  call void @strbuf_add(ptr noundef nonnull %0, ptr noundef nonnull %6, i64 noundef %39) #15
  ret void
}